target datalayout = "e-m:e-p270:32:32-p271:32:32-p272:64:64-i64:64-i128:128-f80:128-n8:16:32:64-S128"
target triple = "x86_64-pc-linux-gnu"

%"class.glslang::TQualifier" = type <{ ptr, i64, i8, [3 x i8], i32, i32, i64, i64, i8, i8, i8, i8, i8, [3 x i8], i32, i8, i8, i8, i8, i32, ptr, i8, i8, [6 x i8] }>

; Function Attrs: mustprogress nounwind uwtable
define linkonce_odr void @_ZN7glslang10TQualifier14clearXfbLayoutEv(ptr noundef nonnull align 8 dereferenceable(80) %0) #0 comdat align 2 {
  %2 = alloca ptr, align 8
  store ptr %0, ptr %2, align 8
  %3 = load ptr, ptr %2, align 8
  %4 = getelementptr inbounds %"class.glslang::TQualifier", ptr %3, i32 0, i32 7
  %5 = load i64, ptr %4, align 4
  %6 = and i64 %5, -16
  %7 = or i64 %6, 15
  store i64 %7, ptr %4, align 4
  %8 = getelementptr inbounds %"class.glslang::TQualifier", ptr %3, i32 0, i32 7
  %9 = load i64, ptr %8, align 4
  %10 = and i64 %9, -262129
  %11 = or i64 %10, 262128
  store i64 %11, ptr %8, align 4
  %12 = getelementptr inbounds %"class.glslang::TQualifier", ptr %3, i32 0, i32 7
  %13 = load i64, ptr %12, align 4
  %14 = and i64 %13, -2147221505
  %15 = or i64 %14, 2147221504
  store i64 %15, ptr %12, align 4
  ret void
}

; Function Attrs: mustprogress nounwind uwtable
define linkonce_odr void @_ZN7glslang10TQualifier17clearStreamLayoutEv(ptr noundef nonnull align 8 dereferenceable(80) %0) #0 comdat align 2 {
  %2 = alloca ptr, align 8
  store ptr %0, ptr %2, align 8
  %3 = load ptr, ptr %2, align 8
  %4 = getelementptr inbounds %"class.glslang::TQualifier", ptr %3, i32 0, i32 6
  %5 = load i64, ptr %4, align 4
  %6 = and i64 %5, 72057594037927935
  %7 = or i64 %6, -72057594037927936
  store i64 %7, ptr %4, align 4
  ret void
}

; Function Attrs: mustprogress nounwind uwtable
define linkonce_odr void @_ZN7glslang10TQualifier21clearInterstageLayoutEv(ptr noundef nonnull align 8 dereferenceable(80) %0) #0 comdat align 2 {
  %2 = alloca ptr, align 8
  store ptr %0, ptr %2, align 8
  %3 = load ptr, ptr %2, align 8
  %4 = getelementptr inbounds %"class.glslang::TQualifier", ptr %3, i32 0, i32 6
  %5 = load i64, ptr %4, align 4
  %6 = and i64 %5, -4096
  %7 = or i64 %6, 4095
  store i64 %7, ptr %4, align 4
  %8 = getelementptr inbounds %"class.glslang::TQualifier", ptr %3, i32 0, i32 6
  %9 = load i64, ptr %8, align 4
  %10 = and i64 %9, -28673
  %11 = or i64 %10, 16384
  store i64 %11, ptr %8, align 4
  %12 = getelementptr inbounds %"class.glslang::TQualifier", ptr %3, i32 0, i32 6
  %13 = load i64, ptr %12, align 4
  %14 = and i64 %13, -71776119061217281
  %15 = or i64 %14, 71776119061217280
  store i64 %15, ptr %12, align 4
  call void @_ZN7glslang10TQualifier17clearStreamLayoutEv(ptr noundef nonnull align 8 dereferenceable(80) %3)
  call void @_ZN7glslang10TQualifier14clearXfbLayoutEv(ptr noundef nonnull align 8 dereferenceable(80) %3)
  ret void
}

; Function Attrs: mustprogress nounwind uwtable
define linkonce_odr void @_ZN7glslang10TQualifier18clearUniformLayoutEv(ptr noundef nonnull align 8 dereferenceable(80) %0) #0 comdat align 2 {
  %2 = alloca ptr, align 8
  store ptr %0, ptr %2, align 8
  %3 = load ptr, ptr %2, align 8
  %4 = getelementptr inbounds %"class.glslang::TQualifier", ptr %3, i32 0, i32 1
  %5 = load i64, ptr %4, align 8
  %6 = and i64 %5, -8070450532247928833
  %7 = or i64 %6, 0
  store i64 %7, ptr %4, align 8
  %8 = getelementptr inbounds %"class.glslang::TQualifier", ptr %3, i32 0, i32 2
  %9 = load i8, ptr %8, align 8
  %10 = and i8 %9, -16
  %11 = or i8 %10, 0
  store i8 %11, ptr %8, align 8
  %12 = getelementptr inbounds %"class.glslang::TQualifier", ptr %3, i32 0, i32 4
  store i32 -1, ptr %12, align 4
  %13 = getelementptr inbounds %"class.glslang::TQualifier", ptr %3, i32 0, i32 5
  store i32 -1, ptr %13, align 8
  %14 = getelementptr inbounds %"class.glslang::TQualifier", ptr %3, i32 0, i32 6
  %15 = load i64, ptr %14, align 4
  %16 = and i64 %15, -4161537
  %17 = or i64 %16, 2064384
  store i64 %17, ptr %14, align 4
  %18 = getelementptr inbounds %"class.glslang::TQualifier", ptr %3, i32 0, i32 6
  %19 = load i64, ptr %18, align 4
  %20 = and i64 %19, -281470681743361
  %21 = or i64 %20, 281470681743360
  store i64 %21, ptr %18, align 4
  %22 = getelementptr inbounds %"class.glslang::TQualifier", ptr %3, i32 0, i32 7
  %23 = load i64, ptr %22, align 4
  %24 = and i64 %23, -1095216660481
  %25 = or i64 %24, 1095216660480
  store i64 %25, ptr %22, align 4
  ret void
}

; Function Attrs: mustprogress nounwind uwtable
define linkonce_odr void @_ZN7glslang10TQualifier18clearInterpolationEv(ptr noundef nonnull align 8 dereferenceable(80) %0) #0 comdat align 2 {
  %2 = alloca ptr, align 8
  store ptr %0, ptr %2, align 8
  %3 = load ptr, ptr %2, align 8
  %4 = getelementptr inbounds %"class.glslang::TQualifier", ptr %3, i32 0, i32 1
  %5 = load i64, ptr %4, align 8
  %6 = and i64 %5, -536870913
  %7 = or i64 %6, 0
  store i64 %7, ptr %4, align 8
  %8 = getelementptr inbounds %"class.glslang::TQualifier", ptr %3, i32 0, i32 1
  %9 = load i64, ptr %8, align 8
  %10 = and i64 %9, -1073741825
  %11 = or i64 %10, 0
  store i64 %11, ptr %8, align 8
  %12 = getelementptr inbounds %"class.glslang::TQualifier", ptr %3, i32 0, i32 1
  %13 = load i64, ptr %12, align 8
  %14 = and i64 %13, -2147483649
  %15 = or i64 %14, 0
  store i64 %15, ptr %12, align 8
  %16 = getelementptr inbounds %"class.glslang::TQualifier", ptr %3, i32 0, i32 1
  %17 = load i64, ptr %16, align 8
  %18 = and i64 %17, -137438953473
  %19 = or i64 %18, 0
  store i64 %19, ptr %16, align 8
  %20 = getelementptr inbounds %"class.glslang::TQualifier", ptr %3, i32 0, i32 1
  %21 = load i64, ptr %20, align 8
  %22 = and i64 %21, -274877906945
  %23 = or i64 %22, 0
  store i64 %23, ptr %20, align 8
  %24 = getelementptr inbounds %"class.glslang::TQualifier", ptr %3, i32 0, i32 1
  %25 = load i64, ptr %24, align 8
  %26 = and i64 %25, -549755813889
  %27 = or i64 %26, 0
  store i64 %27, ptr %24, align 8
  %28 = getelementptr inbounds %"class.glslang::TQualifier", ptr %3, i32 0, i32 1
  %29 = load i64, ptr %28, align 8
  %30 = and i64 %29, -2199023255553
  %31 = or i64 %30, 0
  store i64 %31, ptr %28, align 8
  %32 = getelementptr inbounds %"class.glslang::TQualifier", ptr %3, i32 0, i32 1
  %33 = load i64, ptr %32, align 8
  %34 = and i64 %33, -4398046511105
  %35 = or i64 %34, 0
  store i64 %35, ptr %32, align 8
  %36 = getelementptr inbounds %"class.glslang::TQualifier", ptr %3, i32 0, i32 1
  %37 = load i64, ptr %36, align 8
  %38 = and i64 %37, -8796093022209
  %39 = or i64 %38, 0
  store i64 %39, ptr %36, align 8
  %40 = getelementptr inbounds %"class.glslang::TQualifier", ptr %3, i32 0, i32 1
  %41 = load i64, ptr %40, align 8
  %42 = and i64 %41, -1099511627777
  %43 = or i64 %42, 0
  store i64 %43, ptr %40, align 8
  ret void
}

; Function Attrs: mustprogress nounwind uwtable
define linkonce_odr void @_ZN7glslang10TQualifier11clearLayoutEv(ptr noundef nonnull align 8 dereferenceable(80) %0) #0 comdat align 2 {
  %2 = alloca ptr, align 8
  store ptr %0, ptr %2, align 8
  %3 = load ptr, ptr %2, align 8
  call void @_ZN7glslang10TQualifier18clearUniformLayoutEv(ptr noundef nonnull align 8 dereferenceable(80) %3)
  %4 = getelementptr inbounds %"class.glslang::TQualifier", ptr %3, i32 0, i32 9
  store i8 0, ptr %4, align 1
  %5 = getelementptr inbounds %"class.glslang::TQualifier", ptr %3, i32 0, i32 10
  store i8 0, ptr %5, align 2
  %6 = getelementptr inbounds %"class.glslang::TQualifier", ptr %3, i32 0, i32 11
  store i8 0, ptr %6, align 1
  %7 = getelementptr inbounds %"class.glslang::TQualifier", ptr %3, i32 0, i32 12
  store i8 0, ptr %7, align 8
  %8 = getelementptr inbounds %"class.glslang::TQualifier", ptr %3, i32 0, i32 14
  store i32 -2048, ptr %8, align 4
  %9 = getelementptr inbounds %"class.glslang::TQualifier", ptr %3, i32 0, i32 15
  store i8 0, ptr %9, align 8
  %10 = getelementptr inbounds %"class.glslang::TQualifier", ptr %3, i32 0, i32 16
  store i8 0, ptr %10, align 1
  %11 = getelementptr inbounds %"class.glslang::TQualifier", ptr %3, i32 0, i32 17
  store i8 0, ptr %11, align 2
  %12 = getelementptr inbounds %"class.glslang::TQualifier", ptr %3, i32 0, i32 18
  store i8 0, ptr %12, align 1
  %13 = getelementptr inbounds %"class.glslang::TQualifier", ptr %3, i32 0, i32 21
  store i8 0, ptr %13, align 8
  %14 = getelementptr inbounds %"class.glslang::TQualifier", ptr %3, i32 0, i32 22
  store i8 0, ptr %14, align 1
  %15 = getelementptr inbounds %"class.glslang::TQualifier", ptr %3, i32 0, i32 7
  %16 = load i64, ptr %15, align 4
  %17 = and i64 %16, -141863388262170625
  %18 = or i64 %17, 141863388262170624
  store i64 %18, ptr %15, align 4
  %19 = getelementptr inbounds %"class.glslang::TQualifier", ptr %3, i32 0, i32 8
  store i8 0, ptr %19, align 4
  call void @_ZN7glslang10TQualifier21clearInterstageLayoutEv(ptr noundef nonnull align 8 dereferenceable(80) %3)
  %20 = getelementptr inbounds %"class.glslang::TQualifier", ptr %3, i32 0, i32 7
  %21 = load i64, ptr %20, align 4
  %22 = and i64 %21, -2250700302057473
  %23 = or i64 %22, 2250700302057472
  store i64 %23, ptr %20, align 4
  ret void
}

; Function Attrs: mustprogress nounwind uwtable
define linkonce_odr void @_ZN7glslang10TQualifier11clearMemoryEv(ptr noundef nonnull align 8 dereferenceable(80) %0) #0 comdat align 2 {
  %2 = alloca ptr, align 8
  store ptr %0, ptr %2, align 8
  %3 = load ptr, ptr %2, align 8
  %4 = getelementptr inbounds %"class.glslang::TQualifier", ptr %3, i32 0, i32 1
  %5 = load i64, ptr %4, align 8
  %6 = and i64 %5, -562949953421313
  %7 = or i64 %6, 0
  store i64 %7, ptr %4, align 8
  %8 = getelementptr inbounds %"class.glslang::TQualifier", ptr %3, i32 0, i32 1
  %9 = load i64, ptr %8, align 8
  %10 = and i64 %9, -2251799813685249
  %11 = or i64 %10, 0
  store i64 %11, ptr %8, align 8
  %12 = getelementptr inbounds %"class.glslang::TQualifier", ptr %3, i32 0, i32 1
  %13 = load i64, ptr %12, align 8
  %14 = and i64 %13, -4503599627370497
  %15 = or i64 %14, 0
  store i64 %15, ptr %12, align 8
  %16 = getelementptr inbounds %"class.glslang::TQualifier", ptr %3, i32 0, i32 1
  %17 = load i64, ptr %16, align 8
  %18 = and i64 %17, -9007199254740993
  %19 = or i64 %18, 0
  store i64 %19, ptr %16, align 8
  %20 = getelementptr inbounds %"class.glslang::TQualifier", ptr %3, i32 0, i32 1
  %21 = load i64, ptr %20, align 8
  %22 = and i64 %21, -18014398509481985
  %23 = or i64 %22, 0
  store i64 %23, ptr %20, align 8
  %24 = getelementptr inbounds %"class.glslang::TQualifier", ptr %3, i32 0, i32 1
  %25 = load i64, ptr %24, align 8
  %26 = and i64 %25, -36028797018963969
  %27 = or i64 %26, 0
  store i64 %27, ptr %24, align 8
  %28 = getelementptr inbounds %"class.glslang::TQualifier", ptr %3, i32 0, i32 1
  %29 = load i64, ptr %28, align 8
  %30 = and i64 %29, -72057594037927937
  %31 = or i64 %30, 0
  store i64 %31, ptr %28, align 8
  %32 = getelementptr inbounds %"class.glslang::TQualifier", ptr %3, i32 0, i32 1
  %33 = load i64, ptr %32, align 8
  %34 = and i64 %33, -1125899906842625
  %35 = or i64 %34, 0
  store i64 %35, ptr %32, align 8
  %36 = getelementptr inbounds %"class.glslang::TQualifier", ptr %3, i32 0, i32 1
  %37 = load i64, ptr %36, align 8
  %38 = and i64 %37, -70368744177665
  %39 = or i64 %38, 0
  store i64 %39, ptr %36, align 8
  %40 = getelementptr inbounds %"class.glslang::TQualifier", ptr %3, i32 0, i32 1
  %41 = load i64, ptr %40, align 8
  %42 = and i64 %41, -140737488355329
  %43 = or i64 %42, 0
  store i64 %43, ptr %40, align 8
  %44 = getelementptr inbounds %"class.glslang::TQualifier", ptr %3, i32 0, i32 1
  %45 = load i64, ptr %44, align 8
  %46 = and i64 %45, -281474976710657
  %47 = or i64 %46, 0
  store i64 %47, ptr %44, align 8
  ret void
}

; Function Attrs: mustprogress nounwind uwtable
define linkonce_odr void @_ZN7glslang10TQualifier15clearInterstageEv(ptr noundef nonnull align 8 dereferenceable(80) %0) #0 comdat align 2 {
  %2 = alloca ptr, align 8
  store ptr %0, ptr %2, align 8
  %3 = load ptr, ptr %2, align 8
  call void @_ZN7glslang10TQualifier18clearInterpolationEv(ptr noundef nonnull align 8 dereferenceable(80) %3)
  %4 = getelementptr inbounds %"class.glslang::TQualifier", ptr %3, i32 0, i32 1
  %5 = load i64, ptr %4, align 8
  %6 = and i64 %5, -17592186044417
  %7 = or i64 %6, 0
  store i64 %7, ptr %4, align 8
  %8 = getelementptr inbounds %"class.glslang::TQualifier", ptr %3, i32 0, i32 1
  %9 = load i64, ptr %8, align 8
  %10 = and i64 %9, -35184372088833
  %11 = or i64 %10, 0
  store i64 %11, ptr %8, align 8
  ret void
}

; Function Attrs: mustprogress nounwind uwtable
define linkonce_odr void @_ZN7glslang10TQualifier13makeTemporaryEv(ptr noundef nonnull align 8 dereferenceable(80) %0) #0 comdat align 2 {
  %2 = alloca ptr, align 8
  store ptr %0, ptr %2, align 8
  %3 = load ptr, ptr %2, align 8
  %4 = getelementptr inbounds %"class.glslang::TQualifier", ptr %3, i32 0, i32 0
  store ptr null, ptr %4, align 8
  %5 = getelementptr inbounds %"class.glslang::TQualifier", ptr %3, i32 0, i32 1
  %6 = load i64, ptr %5, align 8
  %7 = and i64 %6, -128
  %8 = or i64 %7, 0
  store i64 %8, ptr %5, align 8
  %9 = getelementptr inbounds %"class.glslang::TQualifier", ptr %3, i32 0, i32 1
  %10 = load i64, ptr %9, align 8
  %11 = and i64 %10, -65409
  %12 = or i64 %11, 0
  store i64 %12, ptr %9, align 8
  call void @_ZN7glslang10TQualifier15clearInterstageEv(ptr noundef nonnull align 8 dereferenceable(80) %3)
  call void @_ZN7glslang10TQualifier11clearMemoryEv(ptr noundef nonnull align 8 dereferenceable(80) %3)
  %13 = getelementptr inbounds %"class.glslang::TQualifier", ptr %3, i32 0, i32 1
  %14 = load i64, ptr %13, align 8
  %15 = and i64 %14, -4294967297
  %16 = or i64 %15, 0
  store i64 %16, ptr %13, align 8
  %17 = getelementptr inbounds %"class.glslang::TQualifier", ptr %3, i32 0, i32 1
  %18 = load i64, ptr %17, align 8
  %19 = and i64 %18, -8589934593
  %20 = or i64 %19, 0
  store i64 %20, ptr %17, align 8
  %21 = getelementptr inbounds %"class.glslang::TQualifier", ptr %3, i32 0, i32 1
  %22 = load i64, ptr %21, align 8
  %23 = and i64 %22, -144115188075855873
  %24 = or i64 %23, 0
  store i64 %24, ptr %21, align 8
  %25 = getelementptr inbounds %"class.glslang::TQualifier", ptr %3, i32 0, i32 1
  %26 = load i64, ptr %25, align 8
  %27 = and i64 %26, -34359738369
  %28 = or i64 %27, 0
  store i64 %28, ptr %25, align 8
  call void @_ZN7glslang10TQualifier11clearLayoutEv(ptr noundef nonnull align 8 dereferenceable(80) %3)
  %29 = getelementptr inbounds %"class.glslang::TQualifier", ptr %3, i32 0, i32 19
  store i32 -1, ptr %29, align 4
  %30 = getelementptr inbounds %"class.glslang::TQualifier", ptr %3, i32 0, i32 20
  store ptr null, ptr %30, align 8
  %31 = getelementptr inbounds %"class.glslang::TQualifier", ptr %3, i32 0, i32 1
  %32 = load i64, ptr %31, align 8
  %33 = and i64 %32, -288230376151711745
  %34 = or i64 %33, 0
  store i64 %34, ptr %31, align 8
  %35 = getelementptr inbounds %"class.glslang::TQualifier", ptr %3, i32 0, i32 1
  %36 = load i64, ptr %35, align 8
  %37 = and i64 %36, -576460752303423489
  %38 = or i64 %37, 0
  store i64 %38, ptr %35, align 8
  ret void
}

; Function Attrs: mustprogress nounwind uwtable
define noundef ptr @_ZN7glslang13TIntermediate13growAggregateEP11TIntermNodeS2_RKNS_10TSourceLocE(ptr noundef nonnull align 8 dereferenceable(2024) %0, ptr noundef %1, ptr noundef %2, ptr noundef nonnull align 8 dereferenceable(24) %3) #0 align 2 {
  %5 = alloca ptr, align 8
  %6 = alloca ptr, align 8
  %7 = alloca ptr, align 8
  %8 = alloca ptr, align 8
  %9 = alloca ptr, align 8
  store ptr %0, ptr %5, align 8
  store ptr %1, ptr %6, align 8
  store ptr %2, ptr %7, align 8
  store ptr %3, ptr %8, align 8
  %10 = load ptr, ptr %5, align 8
  %11 = load ptr, ptr %6, align 8
  %12 = load ptr, ptr %7, align 8
  %13 = call noundef ptr @_ZN7glslang13TIntermediate13growAggregateEP11TIntermNodeS2_(ptr noundef nonnull align 8 dereferenceable(2024) %10, ptr noundef %11, ptr noundef %12)
  store ptr %13, ptr %9, align 8
  %14 = load ptr, ptr %9, align 8
  %15 = icmp ne ptr %14, null
  br i1 %15, label %16, label %22

16:                                               ; preds = %4
  %17 = load ptr, ptr %9, align 8
  %18 = load ptr, ptr %8, align 8
  %19 = load ptr, ptr %17, align 8
  %20 = getelementptr inbounds ptr, ptr %19, i64 1
  %21 = load ptr, ptr %20, align 8
  call void %21(ptr noundef nonnull align 8 dereferenceable(32) %17, ptr noundef nonnull align 8 dereferenceable(24) %18)
  br label %22

22:                                               ; preds = %16, %4
  %23 = load ptr, ptr %9, align 8
  ret ptr %23
}

; Function Attrs: mustprogress nounwind uwtable
define noundef ptr @_ZN7glslang13TIntermediate8addCommaEPNS_12TIntermTypedES2_RKNS_10TSourceLocE(ptr noundef nonnull align 8 dereferenceable(2024) %0, ptr noundef %1, ptr noundef %2, ptr noundef nonnull align 8 dereferenceable(24) %3) #0 align 2 {
  %5 = alloca ptr, align 8
  %6 = alloca ptr, align 8
  %7 = alloca ptr, align 8
  %8 = alloca ptr, align 8
  %9 = alloca ptr, align 8
  store ptr %0, ptr %5, align 8
  store ptr %1, ptr %6, align 8
  store ptr %2, ptr %7, align 8
  store ptr %3, ptr %8, align 8
  %10 = load ptr, ptr %5, align 8
  %11 = load ptr, ptr %6, align 8
  %12 = load ptr, ptr %7, align 8
  %13 = load ptr, ptr %8, align 8
  %14 = call noundef ptr @_ZN7glslang13TIntermediate13growAggregateEP11TIntermNodeS2_RKNS_10TSourceLocE(ptr noundef nonnull align 8 dereferenceable(2024) %10, ptr noundef %11, ptr noundef %12, ptr noundef nonnull align 8 dereferenceable(24) %13)
  store ptr %14, ptr %9, align 8
  %15 = load ptr, ptr %9, align 8
  %16 = load ptr, ptr %15, align 8
  %17 = getelementptr inbounds ptr, ptr %16, i64 6
  %18 = load ptr, ptr %17, align 8
  %19 = call noundef ptr %18(ptr noundef nonnull align 8 dereferenceable(32) %15)
  %20 = load ptr, ptr %19, align 8
  %21 = getelementptr inbounds ptr, ptr %20, i64 49
  %22 = load ptr, ptr %21, align 8
  call void %22(ptr noundef nonnull align 8 dereferenceable(364) %19, i32 noundef 174)
  %23 = load ptr, ptr %9, align 8
  %24 = load ptr, ptr %7, align 8
  %25 = load ptr, ptr %24, align 8
  %26 = getelementptr inbounds ptr, ptr %25, i64 30
  %27 = load ptr, ptr %26, align 8
  %28 = call noundef nonnull align 8 dereferenceable(152) ptr %27(ptr noundef nonnull align 8 dereferenceable(184) %24)
  %29 = load ptr, ptr %23, align 8
  %30 = getelementptr inbounds ptr, ptr %29, i64 29
  %31 = load ptr, ptr %30, align 8
  call void %31(ptr noundef nonnull align 8 dereferenceable(184) %23, ptr noundef nonnull align 8 dereferenceable(152) %28)
  %32 = load ptr, ptr %9, align 8
  %33 = load ptr, ptr %32, align 8
  %34 = getelementptr inbounds ptr, ptr %33, i64 31
  %35 = load ptr, ptr %34, align 8
  %36 = call noundef nonnull align 8 dereferenceable(152) ptr %35(ptr noundef nonnull align 8 dereferenceable(184) %32)
  %37 = load ptr, ptr %36, align 8
  %38 = getelementptr inbounds ptr, ptr %37, i64 10
  %39 = load ptr, ptr %38, align 8
  %40 = call noundef nonnull align 8 dereferenceable(80) ptr %39(ptr noundef nonnull align 8 dereferenceable(152) %36)
  call void @_ZN7glslang10TQualifier13makeTemporaryEv(ptr noundef nonnull align 8 dereferenceable(80) %40)
  %41 = load ptr, ptr %9, align 8
  ret ptr %41
}