; Function Attrs: mustprogress nounwind uwtable
define noundef ptr @_ZN7glslang13TIntermediate8addCommaEPNS_12TIntermTypedES2_RKNS_10TSourceLocE(ptr nocapture noundef nonnull readnone align 8 dereferenceable(2024) %0, ptr noundef %1, ptr noundef %2, ptr noundef nonnull align 8 dereferenceable(24) %3) local_unnamed_addr #0 align 2 {
  %5 = tail call noundef ptr @_ZN7glslang13TIntermediate13growAggregateEP11TIntermNodeS2_(ptr nonnull readnone align 8 poison, ptr noundef %1, ptr noundef %2)
  %.not.i = icmp eq ptr %5, null
  br i1 %.not.i, label %_ZN7glslang13TIntermediate13growAggregateEP11TIntermNodeS2_RKNS_10TSourceLocE.exit, label %6

6:                                                ; preds = %4
  %7 = load ptr, ptr %5, align 8
  %8 = getelementptr inbounds i8, ptr %7, i64 8
  %9 = load ptr, ptr %8, align 8
  tail call void %9(ptr noundef nonnull align 8 dereferenceable(32) %5, ptr noundef nonnull align 8 dereferenceable(24) %3) #17
  br label %_ZN7glslang13TIntermediate13growAggregateEP11TIntermNodeS2_RKNS_10TSourceLocE.exit

_ZN7glslang13TIntermediate13growAggregateEP11TIntermNodeS2_RKNS_10TSourceLocE.exit: ; preds = %4, %6
  %10 = load ptr, ptr %5, align 8
  %11 = getelementptr inbounds i8, ptr %10, i64 48
  %12 = load ptr, ptr %11, align 8
  %13 = tail call noundef ptr %12(ptr noundef nonnull align 8 dereferenceable(32) %5) #17
  %14 = load ptr, ptr %13, align 8
  %15 = getelementptr inbounds i8, ptr %14, i64 392
  %16 = load ptr, ptr %15, align 8
  tail call void %16(ptr noundef nonnull align 8 dereferenceable(364) %13, i32 noundef 174) #17
  %17 = load ptr, ptr %2, align 8
  %18 = getelementptr inbounds i8, ptr %17, i64 240
  %19 = load ptr, ptr %18, align 8
  %20 = tail call noundef nonnull align 8 dereferenceable(152) ptr %19(ptr noundef nonnull align 8 dereferenceable(184) %2) #17
  %21 = load ptr, ptr %5, align 8
  %22 = getelementptr inbounds i8, ptr %21, i64 232
  %23 = load ptr, ptr %22, align 8
  tail call void %23(ptr noundef nonnull align 8 dereferenceable(184) %5, ptr noundef nonnull align 8 dereferenceable(152) %20) #17
  %24 = load ptr, ptr %5, align 8
  %25 = getelementptr inbounds i8, ptr %24, i64 248
  %26 = load ptr, ptr %25, align 8
  %27 = tail call noundef nonnull align 8 dereferenceable(152) ptr %26(ptr noundef nonnull align 8 dereferenceable(184) %5) #17
  %28 = load ptr, ptr %27, align 8
  %29 = getelementptr inbounds i8, ptr %28, i64 80
  %30 = load ptr, ptr %29, align 8
  %31 = tail call noundef nonnull align 8 dereferenceable(80) ptr %30(ptr noundef nonnull align 8 dereferenceable(152) %27) #17
  store ptr null, ptr %31, align 8
  %32 = getelementptr inbounds i8, ptr %31, i64 8
  %33 = load i64, ptr %32, align 8
  %34 = getelementptr inbounds i8, ptr %31, i64 16
  %35 = load i8, ptr %34, align 8
  %36 = and i8 %35, -16
  store i8 %36, ptr %34, align 8
  %37 = getelementptr inbounds i8, ptr %31, i64 20
  store i32 -1, ptr %37, align 4
  %38 = getelementptr inbounds i8, ptr %31, i64 24
  store i32 -1, ptr %38, align 8
  %39 = getelementptr inbounds i8, ptr %31, i64 28
  %40 = load i64, ptr %39, align 4
  %41 = getelementptr inbounds i8, ptr %31, i64 36
  %42 = load i64, ptr %41, align 4
  %43 = getelementptr inbounds i8, ptr %31, i64 45
  %44 = getelementptr inbounds i8, ptr %31, i64 52
  store i32 0, ptr %43, align 1
  store i32 -2048, ptr %44, align 4
  %45 = getelementptr inbounds i8, ptr %31, i64 56
  %46 = getelementptr inbounds i8, ptr %31, i64 72
  store i8 0, ptr %46, align 8
  %47 = getelementptr inbounds i8, ptr %31, i64 73
  store i8 0, ptr %47, align 1
  store i32 0, ptr %45, align 8
  %48 = getelementptr inbounds i8, ptr %31, i64 44
  store i8 0, ptr %48, align 4
  %49 = and i64 %40, 4290772992
  %50 = or disjoint i64 %49, -4292882433
  store i64 %50, ptr %39, align 4
  %51 = or i64 %42, 144115185928372223
  store i64 %51, ptr %41, align 4
  %52 = getelementptr inbounds i8, ptr %31, i64 60
  store i32 -1, ptr %52, align 4
  %53 = getelementptr inbounds i8, ptr %31, i64 64
  store ptr null, ptr %53, align 8
  %54 = and i64 %33, -9223371950418624512
  store i64 %54, ptr %32, align 8
  ret ptr %5
}